; ModuleID = '14/57.c'
source_filename = "14/57.c"
target datalayout = "e-m:e-p270:32:32-p271:32:32-p272:64:64-i64:64-f80:128-n8:16:32:64-S128"
target triple = "x86_64-pc-linux-gnu"

%struct.stu = type { i32, i32, i32, i32 }

@.str = private unnamed_addr constant [3 x i8] c"%d\00", align 1
@.str.1 = private unnamed_addr constant [9 x i8] c"%d %d %d\00", align 1
@.str.2 = private unnamed_addr constant [7 x i8] c"%d %d\0A\00", align 1

; Function Attrs: noinline nounwind uwtable
define dso_local void @main() #0 {
  %1 = alloca i32, align 4
  %2 = alloca i32, align 4
  %3 = alloca i32, align 4
  %4 = alloca i32, align 4
  %5 = alloca %struct.stu*, align 8
  %6 = alloca %struct.stu, align 4
  %7 = call i32 (i8*, ...) @__isoc99_scanf(i8* getelementptr inbounds ([3 x i8], [3 x i8]* @.str, i64 0, i64 0), i32* %3)
  %8 = load i32, i32* %3, align 4
  %9 = sext i32 %8 to i64
  %10 = call noalias i8* @calloc(i64 %9, i64 16) #4
  %11 = bitcast i8* %10 to %struct.stu*
  store %struct.stu* %11, %struct.stu** %5, align 8
  store i32 0, i32* %1, align 4
  br label %12

12:                                               ; preds = %51, %0
  %13 = load i32, i32* %1, align 4
  %14 = load i32, i32* %3, align 4
  %15 = icmp slt i32 %13, %14
  br i1 %15, label %16, label %54

16:                                               ; preds = %12
  %17 = load %struct.stu*, %struct.stu** %5, align 8
  %18 = load i32, i32* %1, align 4
  %19 = sext i32 %18 to i64
  %20 = getelementptr inbounds %struct.stu, %struct.stu* %17, i64 %19
  %21 = getelementptr inbounds %struct.stu, %struct.stu* %20, i32 0, i32 0
  %22 = load %struct.stu*, %struct.stu** %5, align 8
  %23 = load i32, i32* %1, align 4
  %24 = sext i32 %23 to i64
  %25 = getelementptr inbounds %struct.stu, %struct.stu* %22, i64 %24
  %26 = getelementptr inbounds %struct.stu, %struct.stu* %25, i32 0, i32 1
  %27 = load %struct.stu*, %struct.stu** %5, align 8
  %28 = load i32, i32* %1, align 4
  %29 = sext i32 %28 to i64
  %30 = getelementptr inbounds %struct.stu, %struct.stu* %27, i64 %29
  %31 = getelementptr inbounds %struct.stu, %struct.stu* %30, i32 0, i32 2
  %32 = call i32 (i8*, ...) @__isoc99_scanf(i8* getelementptr inbounds ([9 x i8], [9 x i8]* @.str.1, i64 0, i64 0), i32* %21, i32* %26, i32* %31)
  %33 = load %struct.stu*, %struct.stu** %5, align 8
  %34 = load i32, i32* %1, align 4
  %35 = sext i32 %34 to i64
  %36 = getelementptr inbounds %struct.stu, %struct.stu* %33, i64 %35
  %37 = getelementptr inbounds %struct.stu, %struct.stu* %36, i32 0, i32 1
  %38 = load i32, i32* %37, align 4
  %39 = load %struct.stu*, %struct.stu** %5, align 8
  %40 = load i32, i32* %1, align 4
  %41 = sext i32 %40 to i64
  %42 = getelementptr inbounds %struct.stu, %struct.stu* %39, i64 %41
  %43 = getelementptr inbounds %struct.stu, %struct.stu* %42, i32 0, i32 2
  %44 = load i32, i32* %43, align 4
  %45 = add nsw i32 %38, %44
  %46 = load %struct.stu*, %struct.stu** %5, align 8
  %47 = load i32, i32* %1, align 4
  %48 = sext i32 %47 to i64
  %49 = getelementptr inbounds %struct.stu, %struct.stu* %46, i64 %48
  %50 = getelementptr inbounds %struct.stu, %struct.stu* %49, i32 0, i32 3
  store i32 %45, i32* %50, align 4
  br label %51

51:                                               ; preds = %16
  %52 = load i32, i32* %1, align 4
  %53 = add nsw i32 %52, 1
  store i32 %53, i32* %1, align 4
  br label %12

54:                                               ; preds = %12
  store i32 0, i32* %1, align 4
  br label %55

55:                                               ; preds = %107, %54
  %56 = load i32, i32* %1, align 4
  %57 = icmp slt i32 %56, 3
  br i1 %57, label %58, label %110

58:                                               ; preds = %55
  %59 = load i32, i32* %1, align 4
  %60 = add nsw i32 %59, 1
  store i32 %60, i32* %2, align 4
  br label %61

61:                                               ; preds = %103, %58
  %62 = load i32, i32* %2, align 4
  %63 = load i32, i32* %3, align 4
  %64 = icmp slt i32 %62, %63
  br i1 %64, label %65, label %106

65:                                               ; preds = %61
  %66 = load %struct.stu*, %struct.stu** %5, align 8
  %67 = load i32, i32* %1, align 4
  %68 = sext i32 %67 to i64
  %69 = getelementptr inbounds %struct.stu, %struct.stu* %66, i64 %68
  %70 = getelementptr inbounds %struct.stu, %struct.stu* %69, i32 0, i32 3
  %71 = load i32, i32* %70, align 4
  %72 = load %struct.stu*, %struct.stu** %5, align 8
  %73 = load i32, i32* %2, align 4
  %74 = sext i32 %73 to i64
  %75 = getelementptr inbounds %struct.stu, %struct.stu* %72, i64 %74
  %76 = getelementptr inbounds %struct.stu, %struct.stu* %75, i32 0, i32 3
  %77 = load i32, i32* %76, align 4
  %78 = icmp slt i32 %71, %77
  br i1 %78, label %79, label %102

79:                                               ; preds = %65
  %80 = load %struct.stu*, %struct.stu** %5, align 8
  %81 = load i32, i32* %1, align 4
  %82 = sext i32 %81 to i64
  %83 = getelementptr inbounds %struct.stu, %struct.stu* %80, i64 %82
  %84 = bitcast %struct.stu* %6 to i8*
  %85 = bitcast %struct.stu* %83 to i8*
  call void @llvm.memcpy.p0i8.p0i8.i64(i8* align 4 %84, i8* align 4 %85, i64 16, i1 false)
  %86 = load %struct.stu*, %struct.stu** %5, align 8
  %87 = load i32, i32* %1, align 4
  %88 = sext i32 %87 to i64
  %89 = getelementptr inbounds %struct.stu, %struct.stu* %86, i64 %88
  %90 = load %struct.stu*, %struct.stu** %5, align 8
  %91 = load i32, i32* %2, align 4
  %92 = sext i32 %91 to i64
  %93 = getelementptr inbounds %struct.stu, %struct.stu* %90, i64 %92
  %94 = bitcast %struct.stu* %89 to i8*
  %95 = bitcast %struct.stu* %93 to i8*
  call void @llvm.memcpy.p0i8.p0i8.i64(i8* align 4 %94, i8* align 4 %95, i64 16, i1 false)
  %96 = load %struct.stu*, %struct.stu** %5, align 8
  %97 = load i32, i32* %2, align 4
  %98 = sext i32 %97 to i64
  %99 = getelementptr inbounds %struct.stu, %struct.stu* %96, i64 %98
  %100 = bitcast %struct.stu* %99 to i8*
  %101 = bitcast %struct.stu* %6 to i8*
  call void @llvm.memcpy.p0i8.p0i8.i64(i8* align 4 %100, i8* align 4 %101, i64 16, i1 false)
  br label %102

102:                                              ; preds = %79, %65
  br label %103

103:                                              ; preds = %102
  %104 = load i32, i32* %2, align 4
  %105 = add nsw i32 %104, 1
  store i32 %105, i32* %2, align 4
  br label %61

106:                                              ; preds = %61
  br label %107

107:                                              ; preds = %106
  %108 = load i32, i32* %1, align 4
  %109 = add nsw i32 %108, 1
  store i32 %109, i32* %1, align 4
  br label %55

110:                                              ; preds = %55
  store i32 0, i32* %1, align 4
  br label %111

111:                                              ; preds = %128, %110
  %112 = load i32, i32* %1, align 4
  %113 = icmp slt i32 %112, 3
  br i1 %113, label %114, label %131

114:                                              ; preds = %111
  %115 = load %struct.stu*, %struct.stu** %5, align 8
  %116 = load i32, i32* %1, align 4
  %117 = sext i32 %116 to i64
  %118 = getelementptr inbounds %struct.stu, %struct.stu* %115, i64 %117
  %119 = getelementptr inbounds %struct.stu, %struct.stu* %118, i32 0, i32 0
  %120 = load i32, i32* %119, align 4
  %121 = load %struct.stu*, %struct.stu** %5, align 8
  %122 = load i32, i32* %1, align 4
  %123 = sext i32 %122 to i64
  %124 = getelementptr inbounds %struct.stu, %struct.stu* %121, i64 %123
  %125 = getelementptr inbounds %struct.stu, %struct.stu* %124, i32 0, i32 3
  %126 = load i32, i32* %125, align 4
  %127 = call i32 (i8*, ...) @printf(i8* getelementptr inbounds ([7 x i8], [7 x i8]* @.str.2, i64 0, i64 0), i32 %120, i32 %126)
  br label %128

128:                                              ; preds = %114
  %129 = load i32, i32* %1, align 4
  %130 = add nsw i32 %129, 1
  store i32 %130, i32* %1, align 4
  br label %111

131:                                              ; preds = %111
  ret void
}

declare dso_local i32 @__isoc99_scanf(i8*, ...) #1

; Function Attrs: nounwind
declare dso_local noalias i8* @calloc(i64, i64) #2

; Function Attrs: argmemonly nounwind willreturn
declare void @llvm.memcpy.p0i8.p0i8.i64(i8* noalias nocapture writeonly, i8* noalias nocapture readonly, i64, i1 immarg) #3

declare dso_local i32 @printf(i8*, ...) #1


!llvm.module.flags = !{!0}
!llvm.ident = !{!1}

!0 = !{i32 1, !"wchar_size", i32 4}
!1 = !{!"clang version 10.0.0-4ubuntu1 "}
